target datalayout = "e-m:e-p270:32:32-p271:32:32-p272:64:64-i64:64-i128:128-f80:128-n8:16:32:64-S128"
target triple = "x86_64-pc-linux-gnu"

@_ZN4Type4HALFE = external global ptr, align 8
@_ZN4Type6DOUBLEE = external global ptr, align 8

; Function Attrs: mustprogress nounwind uwtable
define hidden noundef ptr @_ZN11OptoRuntime14Math_DD_D_TypeEv() #1 align 2 {
  %1 = alloca ptr, align 8
  %2 = alloca ptr, align 8
  %3 = alloca ptr, align 8
  %4 = call noundef ptr @_ZN9TypeTuple6fieldsEj(i32 noundef 4)
  store ptr %4, ptr %1, align 8
  %5 = load ptr, ptr @_ZN4Type6DOUBLEE, align 8
  %6 = load ptr, ptr %1, align 8
  %7 = getelementptr inbounds ptr, ptr %6, i64 5
  store ptr %5, ptr %7, align 8
  %8 = load ptr, ptr @_ZN4Type4HALFE, align 8
  %9 = load ptr, ptr %1, align 8
  %10 = getelementptr inbounds ptr, ptr %9, i64 6
  store ptr %8, ptr %10, align 8
  %11 = load ptr, ptr @_ZN4Type6DOUBLEE, align 8
  %12 = load ptr, ptr %1, align 8
  %13 = getelementptr inbounds ptr, ptr %12, i64 7
  store ptr %11, ptr %13, align 8
  %14 = load ptr, ptr @_ZN4Type4HALFE, align 8
  %15 = load ptr, ptr %1, align 8
  %16 = getelementptr inbounds ptr, ptr %15, i64 8
  store ptr %14, ptr %16, align 8
  %17 = load ptr, ptr %1, align 8
  %18 = call noundef ptr @_ZN9TypeTuple4makeEjPPK4Type(i32 noundef 9, ptr noundef %17)
  store ptr %18, ptr %2, align 8
  %19 = call noundef ptr @_ZN9TypeTuple6fieldsEj(i32 noundef 2)
  store ptr %19, ptr %1, align 8
  %20 = load ptr, ptr @_ZN4Type6DOUBLEE, align 8
  %21 = load ptr, ptr %1, align 8
  %22 = getelementptr inbounds ptr, ptr %21, i64 5
  store ptr %20, ptr %22, align 8
  %23 = load ptr, ptr @_ZN4Type4HALFE, align 8
  %24 = load ptr, ptr %1, align 8
  %25 = getelementptr inbounds ptr, ptr %24, i64 6
  store ptr %23, ptr %25, align 8
  %26 = load ptr, ptr %1, align 8
  %27 = call noundef ptr @_ZN9TypeTuple4makeEjPPK4Type(i32 noundef 7, ptr noundef %26)
  store ptr %27, ptr %3, align 8
  %28 = load ptr, ptr %2, align 8
  %29 = load ptr, ptr %3, align 8
  %30 = call noundef ptr @_ZN8TypeFunc4makeEPK9TypeTupleS2_(ptr noundef %28, ptr noundef %29)
  ret ptr %30
}