; Function Attrs: mustprogress nounwind uwtable
define hidden noundef ptr @_ZN11OptoRuntime14Math_DD_D_TypeEv() local_unnamed_addr #0 align 2 {
  %1 = tail call noundef ptr @_ZN9TypeTuple6fieldsEj(i32 noundef 4) #12
  %2 = load ptr, ptr @_ZN4Type6DOUBLEE, align 8
  %3 = getelementptr inbounds i8, ptr %1, i64 40
  store ptr %2, ptr %3, align 8
  %4 = load ptr, ptr @_ZN4Type4HALFE, align 8
  %5 = getelementptr inbounds i8, ptr %1, i64 48
  store ptr %4, ptr %5, align 8
  %6 = getelementptr inbounds i8, ptr %1, i64 56
  store ptr %2, ptr %6, align 8
  %7 = getelementptr inbounds i8, ptr %1, i64 64
  store ptr %4, ptr %7, align 8
  %8 = tail call noundef ptr @_ZN9TypeTuple4makeEjPPK4Type(i32 noundef 9, ptr noundef %1) #12
  %9 = tail call noundef ptr @_ZN9TypeTuple6fieldsEj(i32 noundef 2) #12
  %10 = load ptr, ptr @_ZN4Type6DOUBLEE, align 8
  %11 = getelementptr inbounds i8, ptr %9, i64 40
  store ptr %10, ptr %11, align 8
  %12 = load ptr, ptr @_ZN4Type4HALFE, align 8
  %13 = getelementptr inbounds i8, ptr %9, i64 48
  store ptr %12, ptr %13, align 8
  %14 = tail call noundef ptr @_ZN9TypeTuple4makeEjPPK4Type(i32 noundef 7, ptr noundef %9) #12
  %15 = tail call noundef ptr @_ZN8TypeFunc4makeEPK9TypeTupleS2_(ptr noundef %8, ptr noundef %14) #12
  ret ptr %15
}